; Function Attrs: mustprogress nounwind uwtable
define void @_ZN5MovesD2Ev(ptr noundef nonnull align 8 dereferenceable(39992) %0) unnamed_addr #5 align 2 {
  br label %2

2:                                                ; preds = %2, %1
  %.idx = phi i64 [ 15600, %1 ], [ %.add, %2 ]
  %.add = add nsw i64 %.idx, -32
  %.ptr1 = getelementptr inbounds i8, ptr %0, i64 %.add
  tail call void @_ZNSt7__cxx1112basic_stringIcSt11char_traitsIcESaIcEED1Ev(ptr noundef nonnull align 8 dereferenceable(32) %.ptr1) #21
  %3 = icmp eq i64 %.add, 15184
  br i1 %3, label %4, label %2

4:                                                ; preds = %2
  ret void
}